target datalayout = "e-m:e-p270:32:32-p271:32:32-p272:64:64-i64:64-i128:128-f80:128-n8:16:32:64-S128"
target triple = "x86_64-pc-linux-gnu"

%struct.blake2_mac_data_st = type { %struct.blake2s_ctx_st, %struct.blake2s_param_st, [32 x i8] }
%struct.blake2s_ctx_st = type { [8 x i32], [2 x i32], [2 x i32], [64 x i8], i64, i64 }
%struct.blake2s_param_st = type { i8, i8, i8, i8, [4 x i8], [6 x i8], i8, i8, [8 x i8], [8 x i8] }

@.str = private unnamed_addr constant [60 x i8] c"../openssl/providers/implementations/macs/blake2_mac_impl.c\00", align 1

; Function Attrs: nounwind uwtable
define internal void @blake2_mac_free(ptr noundef %0) #0 {
  %2 = alloca ptr, align 8
  %3 = alloca ptr, align 8
  store ptr %0, ptr %2, align 8, !tbaa !3
  call void @llvm.lifetime.start.p0(i64 8, ptr %3) #6
  %4 = load ptr, ptr %2, align 8, !tbaa !3
  store ptr %4, ptr %3, align 8, !tbaa !7
  %5 = load ptr, ptr %3, align 8, !tbaa !7
  %6 = icmp ne ptr %5, null
  br i1 %6, label %7, label %12

7:                                                ; preds = %1
  %8 = load ptr, ptr %3, align 8, !tbaa !7
  %9 = getelementptr inbounds nuw %struct.blake2_mac_data_st, ptr %8, i32 0, i32 2
  %10 = getelementptr inbounds [32 x i8], ptr %9, i64 0, i64 0
  call void @OPENSSL_cleanse(ptr noundef %10, i64 noundef 32)
  %11 = load ptr, ptr %3, align 8, !tbaa !7
  call void @CRYPTO_free(ptr noundef %11, ptr noundef @.str, i32 noundef 79)
  br label %12

12:                                               ; preds = %7, %1
  call void @llvm.lifetime.end.p0(i64 8, ptr %3) #6
  ret void
}