; Function Attrs: nounwind uwtable
define internal void @blake2_mac_free(ptr noundef %0) #0 {
  %.not = icmp eq ptr %0, null
  br i1 %.not, label %4, label %2

2:                                                ; preds = %1
  %3 = getelementptr inbounds nuw i8, ptr %0, i64 160
  tail call void @OPENSSL_cleanse(ptr noundef nonnull %3, i64 noundef 32) #6
  tail call void @CRYPTO_free(ptr noundef nonnull %0, ptr noundef nonnull @.str, i32 noundef 79) #6
  br label %4

4:                                                ; preds = %2, %1
  ret void
}